; Function Attrs: nounwind sspstrong uwtable
define internal i32 @blkdebug_co_pwritev(ptr noundef readonly captures(none) %bs, i64 noundef %offset, i64 noundef %bytes, ptr noundef %qiov, i32 noundef %flags) #0 {
entry:
  %bl = getelementptr inbounds nuw i8, ptr %bs, i64 16464
  %0 = load i32, ptr %bl, align 8
  %conv = zext i32 %0 to i64
  %rem = srem i64 %offset, %conv
  %cmp = icmp eq i64 %rem, 0
  br i1 %cmp, label %if.end, label %if.else

if.else:                                          ; preds = %entry
  tail call void @__assert_fail(ptr noundef nonnull @.str.55, ptr noundef nonnull @.str.12, i32 noundef 661, ptr noundef nonnull @__PRETTY_FUNCTION__.blkdebug_co_pwritev) #17
  unreachable

if.end:                                           ; preds = %entry
  %rem5 = srem i64 %bytes, %conv
  %cmp6 = icmp eq i64 %rem5, 0
  br i1 %cmp6, label %if.end10, label %if.else9

if.else9:                                         ; preds = %if.end
  tail call void @__assert_fail(ptr noundef nonnull @.str.56, ptr noundef nonnull @.str.12, i32 noundef 662, ptr noundef nonnull @__PRETTY_FUNCTION__.blkdebug_co_pwritev) #17
  unreachable

if.end10:                                         ; preds = %if.end
  %max_transfer = getelementptr inbounds nuw i8, ptr %bs, i64 16504
  %1 = load i32, ptr %max_transfer, align 8
  %tobool.not = icmp ne i32 %1, 0
  %conv15 = zext i32 %1 to i64
  %cmp16.not = icmp sgt i64 %bytes, %conv15
  %or.cond = and i1 %tobool.not, %cmp16.not
  br i1 %or.cond, label %if.else19, label %if.end21

if.else19:                                        ; preds = %if.end10
  tail call void @__assert_fail(ptr noundef nonnull @.str.57, ptr noundef nonnull @.str.12, i32 noundef 664, ptr noundef nonnull @__PRETTY_FUNCTION__.blkdebug_co_pwritev) #17
  unreachable

if.end21:                                         ; preds = %if.end10
  %call = tail call i32 @rule_check(ptr noundef nonnull %bs, i64 noundef %offset, i64 noundef %bytes, i32 noundef 1)
  %tobool22.not = icmp eq i32 %call, 0
  br i1 %tobool22.not, label %if.end24, label %return

if.end24:                                         ; preds = %if.end21
  %file = getelementptr inbounds nuw i8, ptr %bs, i64 16840
  %2 = load ptr, ptr %file, align 8
  %call25 = tail call i32 @bdrv_co_pwritev(ptr noundef %2, i64 noundef %offset, i64 noundef %bytes, ptr noundef %qiov, i32 noundef %flags) #13
  br label %return

return:                                           ; preds = %if.end21, %if.end24
  %retval.0 = phi i32 [ %call25, %if.end24 ], [ %call, %if.end21 ]
  ret i32 %retval.0
}